; Function Attrs: mustprogress nofree norecurse nosync nounwind willreturn memory(argmem: readwrite) uwtable
define void @_ZN3net8RttStats21ExpireSmoothedMetricsEv(ptr noundef nonnull align 8 captures(none) dereferenceable(224) %0) local_unnamed_addr #2 align 2 {
  %2 = getelementptr inbounds nuw i8, ptr %0, i64 64
  %3 = getelementptr inbounds nuw i8, ptr %0, i64 32
  %.sroa.22.0..sroa_idx = getelementptr inbounds nuw i8, ptr %0, i64 40
  %.sroa.22.0.copyload = load i64, ptr %.sroa.22.0..sroa_idx, align 8, !tbaa !13
  %.sroa.2.0..sroa_idx = getelementptr inbounds nuw i8, ptr %0, i64 8
  %.sroa.2.0.copyload = load i64, ptr %.sroa.2.0..sroa_idx, align 8, !tbaa !13
  %4 = sub nsw i64 %.sroa.22.0.copyload, %.sroa.2.0.copyload
  %5 = tail call noundef i64 @llvm.abs.i64(i64 %4, i1 true)
  %.sroa.22.0..sroa_idx.i = getelementptr inbounds nuw i8, ptr %0, i64 72
  %.sroa.22.0.copyload.i = load i64, ptr %.sroa.22.0..sroa_idx.i, align 8, !tbaa !13
  %6 = icmp slt i64 %.sroa.22.0.copyload.i, %5
  %.sroa.0.0.copyload.i.sroa.speculate.load.false = load i64, ptr %2, align 8, !tbaa !13
  %.sroa.0.0.copyload.i.sroa.speculated = select i1 %6, i64 0, i64 %.sroa.0.0.copyload.i.sroa.speculate.load.false
  store i64 %.sroa.0.0.copyload.i.sroa.speculated, ptr %2, align 8, !tbaa !15
  %.sroa.speculated = tail call i64 @llvm.smax.i64(i64 %.sroa.22.0.copyload.i, i64 %5)
  store i64 %.sroa.speculated, ptr %.sroa.22.0..sroa_idx.i, align 8, !tbaa !16
  %7 = icmp slt i64 %.sroa.22.0.copyload, %.sroa.2.0.copyload
  %..i8 = select i1 %7, ptr %0, ptr %3
  %.sroa.0.0.copyload.i9 = load i64, ptr %..i8, align 8, !tbaa !13
  store i64 %.sroa.0.0.copyload.i9, ptr %3, align 8, !tbaa !15
  %8 = getelementptr inbounds nuw i8, ptr %..i8, i64 8
  %9 = load i64, ptr %8, align 8, !tbaa !16
  store i64 %9, ptr %.sroa.22.0..sroa_idx, align 8, !tbaa !16
  ret void
}